; ModuleID = '23/1030.c'
source_filename = "23/1030.c"
target datalayout = "e-m:e-p270:32:32-p271:32:32-p272:64:64-i64:64-f80:128-n8:16:32:64-S128"
target triple = "x86_64-pc-linux-gnu"

@.str = private unnamed_addr constant [3 x i8] c"%s\00", align 1
@.str.1 = private unnamed_addr constant [4 x i8] c"%s \00", align 1

; Function Attrs: noinline nounwind uwtable
define dso_local void @main() #0 {
  %1 = alloca [100 x i8*], align 16
  %2 = alloca i8, align 1
  %3 = alloca i32, align 4
  %4 = alloca i32, align 4
  store i8 10, i8* %2, align 1
  store i32 0, i32* %3, align 4
  br label %5

5:                                                ; preds = %22, %0
  %6 = call noalias i8* @malloc(i64 20) #3
  %7 = load i32, i32* %3, align 4
  %8 = sext i32 %7 to i64
  %9 = getelementptr inbounds [100 x i8*], [100 x i8*]* %1, i64 0, i64 %8
  store i8* %6, i8** %9, align 8
  %10 = getelementptr inbounds [100 x i8*], [100 x i8*]* %1, i64 0, i64 0
  %11 = load i32, i32* %3, align 4
  %12 = sext i32 %11 to i64
  %13 = getelementptr inbounds i8*, i8** %10, i64 %12
  %14 = call i32 (i8*, ...) @__isoc99_scanf(i8* getelementptr inbounds ([3 x i8], [3 x i8]* @.str, i64 0, i64 0), i8** %13)
  %15 = load i8, i8* %2, align 1
  %16 = sext i8 %15 to i32
  %17 = call i32 @getchar()
  %18 = icmp eq i32 %16, %17
  br i1 %18, label %19, label %21

19:                                               ; preds = %5
  %20 = load i32, i32* %3, align 4
  store i32 %20, i32* %4, align 4
  br label %25

21:                                               ; preds = %5
  br label %22

22:                                               ; preds = %21
  %23 = load i32, i32* %3, align 4
  %24 = add nsw i32 %23, 1
  store i32 %24, i32* %3, align 4
  br label %5

25:                                               ; preds = %19
  %26 = load i32, i32* %4, align 4
  store i32 %26, i32* %3, align 4
  br label %27

27:                                               ; preds = %36, %25
  %28 = load i32, i32* %3, align 4
  %29 = icmp sgt i32 %28, 0
  br i1 %29, label %30, label %39

30:                                               ; preds = %27
  %31 = getelementptr inbounds [100 x i8*], [100 x i8*]* %1, i64 0, i64 0
  %32 = load i32, i32* %3, align 4
  %33 = sext i32 %32 to i64
  %34 = getelementptr inbounds i8*, i8** %31, i64 %33
  %35 = call i32 (i8*, ...) @printf(i8* getelementptr inbounds ([4 x i8], [4 x i8]* @.str.1, i64 0, i64 0), i8** %34)
  br label %36

36:                                               ; preds = %30
  %37 = load i32, i32* %3, align 4
  %38 = add nsw i32 %37, -1
  store i32 %38, i32* %3, align 4
  br label %27

39:                                               ; preds = %27
  %40 = getelementptr inbounds [100 x i8*], [100 x i8*]* %1, i64 0, i64 0
  %41 = load i32, i32* %3, align 4
  %42 = sext i32 %41 to i64
  %43 = getelementptr inbounds i8*, i8** %40, i64 %42
  %44 = call i32 (i8*, ...) @printf(i8* getelementptr inbounds ([3 x i8], [3 x i8]* @.str, i64 0, i64 0), i8** %43)
  ret void
}

; Function Attrs: nounwind
declare dso_local noalias i8* @malloc(i64) #1

declare dso_local i32 @__isoc99_scanf(i8*, ...) #2

declare dso_local i32 @getchar() #2

declare dso_local i32 @printf(i8*, ...) #2


!llvm.module.flags = !{!0}
!llvm.ident = !{!1}

!0 = !{i32 1, !"wchar_size", i32 4}
!1 = !{!"clang version 10.0.0-4ubuntu1 "}
