; ModuleID = 'source-C-CXX/22/1030.c'
source_filename = "source-C-CXX/22/1030.c"
target datalayout = "e-m:e-p270:32:32-p271:32:32-p272:64:64-i64:64-f80:128-n8:16:32:64-S128"
target triple = "x86_64-pc-linux-gnu"

%struct._IO_FILE = type { i32, i8*, i8*, i8*, i8*, i8*, i8*, i8*, i8*, i8*, i8*, i8*, %struct._IO_marker*, %struct._IO_FILE*, i32, i32, i64, i16, i8, [1 x i8], i8*, i64, %struct._IO_codecvt*, %struct._IO_wide_data*, %struct._IO_FILE*, i8*, i64, i32, [20 x i8] }
%struct._IO_marker = type opaque
%struct._IO_codecvt = type opaque
%struct._IO_wide_data = type opaque

@.str = private unnamed_addr constant [3 x i8] c"%s\00", align 1
@.str.1 = private unnamed_addr constant [4 x i8] c"%s \00", align 1
@stdin = external local_unnamed_addr global %struct._IO_FILE*, align 8

; Function Attrs: nofree nounwind sspstrong uwtable
define dso_local void @main() local_unnamed_addr #0 {
  %1 = alloca [100 x i8*], align 16
  %2 = bitcast [100 x i8*]* %1 to i8*
  call void @llvm.lifetime.start.p0i8(i64 800, i8* nonnull %2) #5
  br label %3

3:                                                ; preds = %3, %0
  %4 = phi i64 [ %11, %3 ], [ 0, %0 ]
  %5 = call noalias align 16 dereferenceable_or_null(20) i8* @malloc(i64 20) #5
  %6 = getelementptr inbounds [100 x i8*], [100 x i8*]* %1, i64 0, i64 %4
  store i8* %5, i8** %6, align 8, !tbaa !5
  %7 = call i32 (i8*, ...) @__isoc99_scanf(i8* getelementptr inbounds ([3 x i8], [3 x i8]* @.str, i64 0, i64 0), i8** nonnull %6)
  %8 = load %struct._IO_FILE*, %struct._IO_FILE** @stdin, align 8, !tbaa !5
  %9 = call i32 @getc(%struct._IO_FILE* %8) #5
  %10 = icmp eq i32 %9, 10
  %11 = add nuw i64 %4, 1
  br i1 %10, label %12, label %3

12:                                               ; preds = %3
  %13 = trunc i64 %4 to i32
  %14 = icmp eq i32 %13, 0
  br i1 %14, label %28, label %15

15:                                               ; preds = %12
  %16 = and i64 %4, 4294967295
  %17 = call i32 @llvm.smin.i32(i32 %13, i32 1)
  br label %18

18:                                               ; preds = %15, %18
  %19 = phi i64 [ %16, %15 ], [ %24, %18 ]
  %20 = getelementptr inbounds [100 x i8*], [100 x i8*]* %1, i64 0, i64 %19
  %21 = call i32 (i8*, ...) @printf(i8* nonnull dereferenceable(1) getelementptr inbounds ([4 x i8], [4 x i8]* @.str.1, i64 0, i64 0), i8** nonnull %20)
  %22 = trunc i64 %19 to i32
  %23 = icmp sgt i32 %22, 1
  %24 = add nsw i64 %19, -1
  br i1 %23, label %18, label %25, !llvm.loop !9

25:                                               ; preds = %18
  %26 = add i32 %17, -1
  %27 = sext i32 %26 to i64
  br label %28

28:                                               ; preds = %25, %12
  %29 = phi i64 [ 0, %12 ], [ %27, %25 ]
  %30 = getelementptr inbounds [100 x i8*], [100 x i8*]* %1, i64 0, i64 %29
  %31 = call i32 (i8*, ...) @printf(i8* nonnull dereferenceable(1) getelementptr inbounds ([3 x i8], [3 x i8]* @.str, i64 0, i64 0), i8** nonnull %30)
  call void @llvm.lifetime.end.p0i8(i64 800, i8* nonnull %2) #5
  ret void
}

; Function Attrs: argmemonly mustprogress nofree nosync nounwind willreturn
declare void @llvm.lifetime.start.p0i8(i64 immarg, i8* nocapture) #1

; Function Attrs: inaccessiblememonly mustprogress nofree nounwind willreturn
declare noalias noundef align 16 i8* @malloc(i64 noundef) local_unnamed_addr #2

; Function Attrs: nofree nounwind
declare noundef i32 @__isoc99_scanf(i8* nocapture noundef readonly, ...) local_unnamed_addr #3

; Function Attrs: nofree nounwind
declare noundef i32 @printf(i8* nocapture noundef readonly, ...) local_unnamed_addr #3

; Function Attrs: argmemonly mustprogress nofree nosync nounwind willreturn
declare void @llvm.lifetime.end.p0i8(i64 immarg, i8* nocapture) #1

; Function Attrs: nofree nounwind
declare noundef i32 @getc(%struct._IO_FILE* nocapture noundef) local_unnamed_addr #3

; Function Attrs: nofree nosync nounwind readnone speculatable willreturn
declare i32 @llvm.smin.i32(i32, i32) #4


!llvm.module.flags = !{!0, !1, !2, !3}
!llvm.ident = !{!4}

!0 = !{i32 1, !"wchar_size", i32 4}
!1 = !{i32 7, !"PIC Level", i32 2}
!2 = !{i32 7, !"PIE Level", i32 2}
!3 = !{i32 7, !"uwtable", i32 1}
!4 = !{!"clang version 13.0.0"}
!5 = !{!6, !6, i64 0}
!6 = !{!"any pointer", !7, i64 0}
!7 = !{!"omnipotent char", !8, i64 0}
!8 = !{!"Simple C/C++ TBAA"}
!9 = distinct !{!9, !10}
!10 = !{!"llvm.loop.mustprogress"}
